; Function Attrs: nounwind uwtable
define internal i32 @kdf_init(ptr noundef captures(address_is_null) %0, ptr noundef %1, ptr noundef %2) #0 {
  %4 = tail call i32 @ossl_prov_is_running() #3
  %5 = icmp eq i32 %4, 0
  %6 = icmp eq ptr %0, null
  %or.cond = or i1 %6, %5
  %7 = icmp eq ptr %1, null
  %or.cond3 = or i1 %7, %or.cond
  br i1 %or.cond3, label %15, label %8

8:                                                ; preds = %3
  %9 = tail call i32 @ossl_kdf_data_up_ref(ptr noundef nonnull %1) #3
  %.not = icmp eq i32 %9, 0
  br i1 %.not, label %15, label %10

10:                                               ; preds = %8
  %11 = getelementptr inbounds nuw i8, ptr %0, i64 16
  store ptr %1, ptr %11, align 8, !tbaa !3
  %12 = getelementptr inbounds nuw i8, ptr %0, i64 8
  %13 = load ptr, ptr %12, align 8, !tbaa !10
  %14 = tail call i32 @EVP_KDF_CTX_set_params(ptr noundef %13, ptr noundef %2) #3
  br label %15

15:                                               ; preds = %3, %8, %10
  %.0 = phi i32 [ %14, %10 ], [ 0, %8 ], [ 0, %3 ]
  ret i32 %.0
}